
crc16.elf:     file format elf32-m68k


Disassembly of section .text.init:

00002000 <START>:
    2000:	2e78 0414      	moveal 414 <SDB_MEMSIZE>,%sp
    2004:	41fa fffa      	lea %pc@(2000 <START>),%a0
    2008:	43f9 0000 2000 	lea 2000 <START>,%a1
    200e:	203c 0000 20c4 	movel #8388,%d0
    2014:	9089           	subl %a1,%d0
    2016:	e488           	lsrl #2,%d0
    2018:	5380           	subql #1,%d0
    201a:	22d8           	movel %a0@+,%a1@+
    201c:	51c8 fffc      	dbf %d0,201a <START+0x1a>
    2020:	4ef9 0000 2028 	jmp 2028 <_postinit>

Disassembly of section .text.postinit:

00002028 <_postinit>:
    2028:	203c 0000 29b0 	movel #10672,%d0
    202e:	9089           	subl %a1,%d0
    2030:	e488           	lsrl #2,%d0
    2032:	2200           	movel %d0,%d1
    2034:	4841           	swap %d1
    2036:	6002           	bras 203a <_postinit+0x12>
    2038:	22d8           	movel %a0@+,%a1@+
    203a:	51c8 fffc      	dbf %d0,2038 <_postinit+0x10>
    203e:	51c9 fff8      	dbf %d1,2038 <_postinit+0x10>

00002042 <PREMAIN>:
    2042:	23f8 0490 0000 	movel 490 <EFP_PROG_EXIT>,29b0 <_bss_start>
    2048:	29b0 
    204a:	21fc 0000 2064 	movel #8292,490 <EFP_PROG_EXIT>
    2050:	0490 
    2052:	41f9 0000 24f6 	lea 24f6 <__kinit>,%a0
    2058:	4e90           	jsr %a0@
    205a:	6124           	bsrs 2080 <CALL_CTORS>
    205c:	41f9 0000 20c4 	lea 20c4 <_postinit_end>,%a0
    2062:	4e90           	jsr %a0@
    2064:	21f9 0000 29b0 	movel 29b0 <_bss_start>,490 <EFP_PROG_EXIT>
    206a:	0490 
    206c:	42a7           	clrl %sp@-
    206e:	41f9 0000 2522 	lea 2522 <__cxa_finalize>,%a0
    2074:	4e90           	jsr %a0@
    2076:	588f           	addql #4,%sp
    2078:	6128           	bsrs 20a2 <CALL_DTORS>
    207a:	2078 0004      	moveal 4 <DUART_CRA>,%a0
    207e:	4ed0           	jmp %a0@

00002080 <CALL_CTORS>:
    2080:	48e7 0038      	moveml %a2-%a4,%sp@-
    2084:	45f9 0000 25a4 	lea 25a4 <_ctors>,%a2
    208a:	47f9 0000 25a4 	lea 25a4 <_ctors>,%a3
    2090:	598b           	subql #4,%a3
    2092:	b7ca           	cmpal %a2,%a3
    2094:	6506           	bcss 209c <CALL_CTORS+0x1c>
    2096:	2853           	moveal %a3@,%a4
    2098:	4e94           	jsr %a4@
    209a:	60f4           	bras 2090 <CALL_CTORS+0x10>
    209c:	4cdf 1c00      	moveml %sp@+,%a2-%a4
    20a0:	4e75           	rts

000020a2 <CALL_DTORS>:
    20a2:	48e7 0038      	moveml %a2-%a4,%sp@-
    20a6:	45f9 0000 25a4 	lea 25a4 <_ctors>,%a2
    20ac:	47f9 0000 25a4 	lea 25a4 <_ctors>,%a3
    20b2:	b5cb           	cmpal %a3,%a2
    20b4:	6708           	beqs 20be <CALL_DTORS+0x1c>
    20b6:	2852           	moveal %a2@,%a4
    20b8:	4e94           	jsr %a4@
    20ba:	588a           	addql #4,%a2
    20bc:	60f4           	bras 20b2 <CALL_DTORS+0x10>
    20be:	4cdf 1c00      	moveml %sp@+,%a2-%a4
    20c2:	4e75           	rts

Disassembly of section .text:

000020c4 <_code>:
    20c4:	6000 0402      	braw 24c8 <mhstart>
    20c8:	0000 1021      	orib #33,%d0
    20cc:	2042           	moveal %d2,%a0
    20ce:	3063           	moveaw %a3@-,%a0
    20d0:	4084           	negxl %d4
    20d2:	50a5           	addql #8,%a5@-
    20d4:	60c6           	bras 209c <CALL_CTORS+0x1c>
    20d6:	70e7           	moveq #-25,%d0
    20d8:	8108           	sbcd %a0@-,%a0@-
    20da:	9129 a14a      	subb %d0,%a1@(-24246)
    20de:	b16b c18c      	eorw %d0,%a3@(-15988)
    20e2:	d1ad e1ce      	addl %d0,%a5@(-7730)
    20e6:	f1ef           	.short 0xf1ef
    20e8:	1231 0210      	moveb %a1@(10,%d0:w:2),%d1
    20ec:	3273 2252      	moveaw %a3@(52,%d2:w:2),%a1
    20f0:	52b5 4294      	addql #1,%a5@(ffffffffffffff94,%d4:w:2)
    20f4:	72f7           	moveq #-9,%d1
    20f6:	62d6           	bhis 20ce <_code+0xa>
    20f8:	9339 8318 b37b 	subb %d1,8318b37b <ROMBASE+0x821cb37b>
    20fe:	a35a           	.short 0xa35a
    2100:	d3bd           	.short 0xd3bd
    2102:	c39c           	andl %d1,%a4@+
    2104:	f3ff           	.short 0xf3ff
    2106:	e3de           	lslw %fp@+
    2108:	2462           	moveal %a2@-,%a2
    210a:	3443           	moveaw %d3,%a2
    210c:	0420 1401      	subib #1,%a0@-
    2110:	64e6           	bccs 20f8 <_code+0x34>
    2112:	74c7           	moveq #-57,%d2
    2114:	44a4           	negl %a4@-
    2116:	5485           	addql #2,%d5
    2118:	a56a           	.short 0xa56a
    211a:	b54b           	cmpmw %a3@+,%a2@+
    211c:	8528 9509      	orb %d2,%a0@(-27383)
    2120:	e5ee f5cf      	roxlw %fp@(-2609)
    2124:	c5ac d58d      	andl %d2,%a4@(-10867)
    2128:	3653           	moveaw %a3@,%a3
    212a:	2672 1611      	moveal %a2@(11,%d1:w:8),%a3
    212e:	0630 76d7 66f6 	addib #-41,%a0@(fffffffffffffff6,%d6:w:8)
    2134:	5695           	addql #3,%a5@
    2136:	46b4 b75b a77a 	notl %a4@(0)@(ffffffffa77a9719)
    213c:	9719 
    213e:	8738 f7df      	orb %d3,fffff7df <ROMBASE+0xff03f7df>
    2142:	e7fe           	.short 0xe7fe
    2144:	d79d           	addl %d3,%a5@+
    2146:	c7bc           	.short 0xc7bc
    2148:	48c4           	extl %d4
    214a:	58e5           	svc %a5@-
    214c:	6886           	bvcs 20d4 <_code+0x10>
    214e:	78a7           	moveq #-89,%d4
    2150:	0840 1861      	bchg #97,%d0
    2154:	2802           	movel %d2,%d4
    2156:	3823           	movew %a3@-,%d4
    2158:	c9cc           	.short 0xc9cc
    215a:	d9ed e98e      	addal %a5@(-5746),%a4
    215e:	f9af           	.short 0xf9af
    2160:	8948           	.short 0x8948
    2162:	9969 a90a      	subw %d4,%a1@(-22262)
    2166:	b92b 5af5      	eorb %d4,%a3@(23285)
    216a:	4ad4           	tas %a4@
    216c:	7ab7           	moveq #-73,%d5
    216e:	6a96           	bpls 2106 <_code+0x42>
    2170:	1a71           	.short 0x1a71
    2172:	0a50 3a33      	eoriw #14899,%a0@
    2176:	2a12           	movel %a2@,%d5
    2178:	dbfd           	.short 0xdbfd
    217a:	cbdc           	mulsw %a4@+,%d5
    217c:	fbbf           	.short 0xfbbf
    217e:	eb9e           	roll #5,%d6
    2180:	9b79 8b58 bb3b 	subw %d5,8b58bb3b <ROMBASE+0x8a5cbb3b>
    2186:	ab1a           	.short 0xab1a
    2188:	6ca6           	bges 2130 <_code+0x6c>
    218a:	7c87           	moveq #-121,%d6
    218c:	4ce4           	.short 0x4ce4
    218e:	5cc5           	sge %d5
    2190:	2c22           	movel %a2@-,%d6
    2192:	3c03           	movew %d3,%d6
    2194:	0c60 1c41      	cmpiw #7233,%a0@-
    2198:	edae           	lsll %d6,%d6
    219a:	fd8f           	.short 0xfd8f
    219c:	cdec ddcd      	mulsw %a4@(-8755),%d6
    21a0:	ad2a           	.short 0xad2a
    21a2:	bd0b           	cmpmb %a3@+,%fp@+
    21a4:	8d68 9d49      	orw %d6,%a0@(-25271)
    21a8:	7e97           	moveq #-105,%d7
    21aa:	6eb6           	bgts 2162 <_code+0x9e>
    21ac:	5ed5           	sgt %a5@
    21ae:	4ef4 3e13      	jmp %a4@(13,%d3:l:8)
    21b2:	2e32 1e51      	movel %a2@(51,%d1:l:8),%d7
    21b6:	0e70           	.short 0x0e70
    21b8:	ff9f           	.short 0xff9f
    21ba:	efbe           	roll %d7,%d6
    21bc:	dfdd           	addal %a5@+,%sp
    21be:	cffc bf1b      	mulsw #-16613,%d7
    21c2:	af3a           	.short 0xaf3a
    21c4:	9f59           	subw %d7,%a1@+
    21c6:	8f78 9188      	orw %d7,ffff9188 <ROMBASE+0xff039188>
    21ca:	81a9 b1ca      	orl %d0,%a1@(-20022)
    21ce:	a1eb           	.short 0xa1eb
    21d0:	d10c           	addxb %a4@-,%a0@-
    21d2:	c12d f14e      	andb %d0,%a5@(-3762)
    21d6:	e16f           	lslw %d0,%d7
    21d8:	1080           	moveb %d0,%a0@
    21da:	00a1 30c2 20e3 	oril #818028771,%a1@-
    21e0:	5004           	addqb #8,%d4
    21e2:	4025           	negxb %a5@-
    21e4:	7046           	moveq #70,%d0
    21e6:	6067           	bras 224f <_code+0x18b>
    21e8:	83b9 9398 a3fb 	orl %d1,9398a3fb <ROMBASE+0x929ca3fb>
    21ee:	b3da           	cmpal %a2@+,%a1
    21f0:	c33d           	.short 0xc33d
    21f2:	d31c           	addb %d1,%a4@+
    21f4:	e37f           	rolw %d1,%d7
    21f6:	f35e           	frestore %fp@+
    21f8:	02b1 1290 22f3 	andil #311436019,%a1@(ffffffffffffffd2,%d3:w:2)
    21fe:	32d2 
    2200:	4235 5214      	clrb %a5@(14,%d5:w:2)
    2204:	6277           	bhis 227d <_code+0x1b9>
    2206:	7256           	moveq #86,%d1
    2208:	b5ea a5cb      	cmpal %a2@(-23093),%a2
    220c:	95a8 8589      	subl %d2,%a0@(-31351)
    2210:	f56e           	.short 0xf56e
    2212:	e54f           	lslw #2,%d7
    2214:	d52c c50d      	addb %d2,%a4@(-15091)
    2218:	34e2           	movew %a2@-,%a2@+
    221a:	24c3           	movel %d3,%a2@+
    221c:	14a0           	moveb %a0@-,%a2@
    221e:	0481 7466 6447 	subil #1952867399,%d1
    2224:	5424           	addqb #2,%a4@-
    2226:	4405           	negb %d5
    2228:	a7db           	.short 0xa7db
    222a:	b7fa 8799      	cmpal %pc@(ffffa9c5 <ROMBASE+0xff03a9c5>),%a3
    222e:	97b8 e75f      	subl %d3,ffffe75f <ROMBASE+0xff03e75f>
    2232:	f77e           	.short 0xf77e
    2234:	c71d           	andb %d3,%a5@+
    2236:	d73c           	.short 0xd73c
    2238:	26d3           	movel %a3@,%a3@+
    223a:	36f2 0691      	movew %a2@(ffffffffffffff91,%d0:w:8),%a3@+
    223e:	16b0 6657      	moveb %a0@(57,%d6:w:8),%a3@
    2242:	7676           	moveq #118,%d3
    2244:	4615           	notb %a5@
    2246:	5634 d94c      	addqb #3,%a4@(0)@(0)
    224a:	c96d f90e      	andw %d4,%a5@(-1778)
    224e:	e92f           	lslb %d4,%d7
    2250:	99c8           	subal %a0,%a4
    2252:	89e9 b98a      	divsw %a1@(-18038),%d4
    2256:	a9ab           	.short 0xa9ab
    2258:	5844           	addqw #4,%d4
    225a:	4865           	.short 0x4865
    225c:	7806           	moveq #6,%d4
    225e:	6827           	bvcs 2287 <_code+0x1c3>
    2260:	18c0           	moveb %d0,%a4@+
    2262:	08e1 3882      	bset #-126,%a1@-
    2266:	28a3           	movel %a3@-,%a4@
    2268:	cb7d           	.short 0xcb7d
    226a:	db5c           	addw %d5,%a4@+
    226c:	eb3f           	rolb %d5,%d7
    226e:	fb1e           	.short 0xfb1e
    2270:	8bf9 9bd8 abbb 	divsw 9bd8abbb <ROMBASE+0x9adcabbb>,%d5
    2276:	bb9a           	eorl %d5,%a2@+
    2278:	4a75 5a54      	tstw %a5@(54,%d5:l:2)
    227c:	6a37           	bpls 22b5 <_code+0x1f1>
    227e:	7a16           	moveq #22,%d5
    2280:	0af1           	.short 0x0af1
    2282:	1ad0           	moveb %a0@,%a5@+
    2284:	2ab3 3a92      	movel %a3@(ffffffffffffff92,%d3:l:2),%a5@
    2288:	fd2e           	.short 0xfd2e
    228a:	ed0f           	lslb #6,%d7
    228c:	dd6c cd4d      	addw %d6,%a4@(-12979)
    2290:	bdaa ad8b      	eorl %d6,%a2@(-21109)
    2294:	9de8 8dc9      	subal %a0@(-29239),%fp
    2298:	7c26           	moveq #38,%d6
    229a:	6c07           	bges 22a3 <_code+0x1df>
    229c:	5c64           	addqw #6,%a4@-
    229e:	4c45           	.short 0x4c45
    22a0:	3ca2           	movew %a2@-,%fp@
    22a2:	2c83           	movel %d3,%fp@
    22a4:	1ce0           	moveb %a0@-,%fp@+
    22a6:	0cc1           	.short 0x0cc1
    22a8:	ef1f           	rolb #7,%d7
    22aa:	ff3e           	.short 0xff3e
    22ac:	cf5d           	andw %d7,%a5@+
    22ae:	df7c           	.short 0xdf7c
    22b0:	af9b           	.short 0xaf9b
    22b2:	bfba           	.short 0xbfba
    22b4:	8fd9           	divsw %a1@+,%d7
    22b6:	9ff8 6e17      	subal 6e17 <_bss_end+0xc5f>,%sp
    22ba:	7e36           	moveq #54,%d7
    22bc:	4e55 5e74      	linkw %a5,#24180
    22c0:	2e93           	movel %a3@,%sp@
    22c2:	3eb2 0ed1      	movew %a2@(ffffffffffffffd1,%d0:l:8),%sp@
    22c6:	1ef0 0000      	moveb %a0@(0,%d0:w),%sp@+
    22ca:	1021           	moveb %a1@-,%d0
    22cc:	2042           	moveal %d2,%a0
    22ce:	3063           	moveaw %a3@-,%a0
    22d0:	4084           	negxl %d4
    22d2:	50a5           	addql #8,%a5@-
    22d4:	60c6           	bras 229c <_code+0x1d8>
    22d6:	70e7           	moveq #-25,%d0
    22d8:	8108           	sbcd %a0@-,%a0@-
    22da:	9129 a14a      	subb %d0,%a1@(-24246)
    22de:	b16b c18c      	eorw %d0,%a3@(-15988)
    22e2:	d1ad e1ce      	addl %d0,%a5@(-7730)
    22e6:	f1ef           	.short 0xf1ef
    22e8:	1231 0210      	moveb %a1@(10,%d0:w:2),%d1
    22ec:	3273 2252      	moveaw %a3@(52,%d2:w:2),%a1
    22f0:	52b5 4294      	addql #1,%a5@(ffffffffffffff94,%d4:w:2)
    22f4:	72f7           	moveq #-9,%d1
    22f6:	62d6           	bhis 22ce <_code+0x20a>
    22f8:	9339 8318 b37b 	subb %d1,8318b37b <ROMBASE+0x821cb37b>
    22fe:	a35a           	.short 0xa35a
    2300:	d3bd           	.short 0xd3bd
    2302:	c39c           	andl %d1,%a4@+
    2304:	f3ff           	.short 0xf3ff
    2306:	e3de           	lslw %fp@+
    2308:	2462           	moveal %a2@-,%a2
    230a:	3443           	moveaw %d3,%a2
    230c:	0420 1401      	subib #1,%a0@-
    2310:	64e6           	bccs 22f8 <_code+0x234>
    2312:	74c7           	moveq #-57,%d2
    2314:	44a4           	negl %a4@-
    2316:	5485           	addql #2,%d5
    2318:	a56a           	.short 0xa56a
    231a:	b54b           	cmpmw %a3@+,%a2@+
    231c:	8528 9509      	orb %d2,%a0@(-27383)
    2320:	e5ee f5cf      	roxlw %fp@(-2609)
    2324:	c5ac d58d      	andl %d2,%a4@(-10867)
    2328:	3653           	moveaw %a3@,%a3
    232a:	2672 1611      	moveal %a2@(11,%d1:w:8),%a3
    232e:	0630 76d7 66f6 	addib #-41,%a0@(fffffffffffffff6,%d6:w:8)
    2334:	5695           	addql #3,%a5@
    2336:	46b4 b75b a77a 	notl %a4@(0)@(ffffffffa77a9719)
    233c:	9719 
    233e:	8738 f7df      	orb %d3,fffff7df <ROMBASE+0xff03f7df>
    2342:	e7fe           	.short 0xe7fe
    2344:	d79d           	addl %d3,%a5@+
    2346:	c7bc           	.short 0xc7bc
    2348:	48c4           	extl %d4
    234a:	58e5           	svc %a5@-
    234c:	6886           	bvcs 22d4 <_code+0x210>
    234e:	78a7           	moveq #-89,%d4
    2350:	0840 1861      	bchg #97,%d0
    2354:	2802           	movel %d2,%d4
    2356:	3823           	movew %a3@-,%d4
    2358:	c9cc           	.short 0xc9cc
    235a:	d9ed e98e      	addal %a5@(-5746),%a4
    235e:	f9af           	.short 0xf9af
    2360:	8948           	.short 0x8948
    2362:	9969 a90a      	subw %d4,%a1@(-22262)
    2366:	b92b 5af5      	eorb %d4,%a3@(23285)
    236a:	4ad4           	tas %a4@
    236c:	7ab7           	moveq #-73,%d5
    236e:	6a96           	bpls 2306 <_code+0x242>
    2370:	1a71           	.short 0x1a71
    2372:	0a50 3a33      	eoriw #14899,%a0@
    2376:	2a12           	movel %a2@,%d5
    2378:	dbfd           	.short 0xdbfd
    237a:	cbdc           	mulsw %a4@+,%d5
    237c:	fbbf           	.short 0xfbbf
    237e:	eb9e           	roll #5,%d6
    2380:	9b79 8b58 bb3b 	subw %d5,8b58bb3b <ROMBASE+0x8a5cbb3b>
    2386:	ab1a           	.short 0xab1a
    2388:	6ca6           	bges 2330 <_code+0x26c>
    238a:	7c87           	moveq #-121,%d6
    238c:	4ce4           	.short 0x4ce4
    238e:	5cc5           	sge %d5
    2390:	2c22           	movel %a2@-,%d6
    2392:	3c03           	movew %d3,%d6
    2394:	0c60 1c41      	cmpiw #7233,%a0@-
    2398:	edae           	lsll %d6,%d6
    239a:	fd8f           	.short 0xfd8f
    239c:	cdec ddcd      	mulsw %a4@(-8755),%d6
    23a0:	ad2a           	.short 0xad2a
    23a2:	bd0b           	cmpmb %a3@+,%fp@+
    23a4:	8d68 9d49      	orw %d6,%a0@(-25271)
    23a8:	7e97           	moveq #-105,%d7
    23aa:	6eb6           	bgts 2362 <_code+0x29e>
    23ac:	5ed5           	sgt %a5@
    23ae:	4ef4 3e13      	jmp %a4@(13,%d3:l:8)
    23b2:	2e32 1e51      	movel %a2@(51,%d1:l:8),%d7
    23b6:	0e70           	.short 0x0e70
    23b8:	ff9f           	.short 0xff9f
    23ba:	efbe           	roll %d7,%d6
    23bc:	dfdd           	addal %a5@+,%sp
    23be:	cffc bf1b      	mulsw #-16613,%d7
    23c2:	af3a           	.short 0xaf3a
    23c4:	9f59           	subw %d7,%a1@+
    23c6:	8f78 9188      	orw %d7,ffff9188 <ROMBASE+0xff039188>
    23ca:	81a9 b1ca      	orl %d0,%a1@(-20022)
    23ce:	a1eb           	.short 0xa1eb
    23d0:	d10c           	addxb %a4@-,%a0@-
    23d2:	c12d f14e      	andb %d0,%a5@(-3762)
    23d6:	e16f           	lslw %d0,%d7
    23d8:	1080           	moveb %d0,%a0@
    23da:	00a1 30c2 20e3 	oril #818028771,%a1@-
    23e0:	5004           	addqb #8,%d4
    23e2:	4025           	negxb %a5@-
    23e4:	7046           	moveq #70,%d0
    23e6:	6067           	bras 244f <_code+0x38b>
    23e8:	83b9 9398 a3fb 	orl %d1,9398a3fb <ROMBASE+0x929ca3fb>
    23ee:	b3da           	cmpal %a2@+,%a1
    23f0:	c33d           	.short 0xc33d
    23f2:	d31c           	addb %d1,%a4@+
    23f4:	e37f           	rolw %d1,%d7
    23f6:	f35e           	frestore %fp@+
    23f8:	02b1 1290 22f3 	andil #311436019,%a1@(ffffffffffffffd2,%d3:w:2)
    23fe:	32d2 
    2400:	4235 5214      	clrb %a5@(14,%d5:w:2)
    2404:	6277           	bhis 247d <_code+0x3b9>
    2406:	7256           	moveq #86,%d1
    2408:	b5ea a5cb      	cmpal %a2@(-23093),%a2
    240c:	95a8 8589      	subl %d2,%a0@(-31351)
    2410:	f56e           	.short 0xf56e
    2412:	e54f           	lslw #2,%d7
    2414:	d52c c50d      	addb %d2,%a4@(-15091)
    2418:	34e2           	movew %a2@-,%a2@+
    241a:	24c3           	movel %d3,%a2@+
    241c:	14a0           	moveb %a0@-,%a2@
    241e:	0481 7466 6447 	subil #1952867399,%d1
    2424:	5424           	addqb #2,%a4@-
    2426:	4405           	negb %d5
    2428:	a7db           	.short 0xa7db
    242a:	b7fa 8799      	cmpal %pc@(ffffabc5 <ROMBASE+0xff03abc5>),%a3
    242e:	97b8 e75f      	subl %d3,ffffe75f <ROMBASE+0xff03e75f>
    2432:	f77e           	.short 0xf77e
    2434:	c71d           	andb %d3,%a5@+
    2436:	d73c           	.short 0xd73c
    2438:	26d3           	movel %a3@,%a3@+
    243a:	36f2 0691      	movew %a2@(ffffffffffffff91,%d0:w:8),%a3@+
    243e:	16b0 6657      	moveb %a0@(57,%d6:w:8),%a3@
    2442:	7676           	moveq #118,%d3
    2444:	4615           	notb %a5@
    2446:	5634 d94c      	addqb #3,%a4@(0)@(0)
    244a:	c96d f90e      	andw %d4,%a5@(-1778)
    244e:	e92f           	lslb %d4,%d7
    2450:	99c8           	subal %a0,%a4
    2452:	89e9 b98a      	divsw %a1@(-18038),%d4
    2456:	a9ab           	.short 0xa9ab
    2458:	5844           	addqw #4,%d4
    245a:	4865           	.short 0x4865
    245c:	7806           	moveq #6,%d4
    245e:	6827           	bvcs 2487 <_code+0x3c3>
    2460:	18c0           	moveb %d0,%a4@+
    2462:	08e1 3882      	bset #-126,%a1@-
    2466:	28a3           	movel %a3@-,%a4@
    2468:	cb7d           	.short 0xcb7d
    246a:	db5c           	addw %d5,%a4@+
    246c:	eb3f           	rolb %d5,%d7
    246e:	fb1e           	.short 0xfb1e
    2470:	8bf9 9bd8 abbb 	divsw 9bd8abbb <ROMBASE+0x9adcabbb>,%d5
    2476:	bb9a           	eorl %d5,%a2@+
    2478:	4a75 5a54      	tstw %a5@(54,%d5:l:2)
    247c:	6a37           	bpls 24b5 <_code+0x3f1>
    247e:	7a16           	moveq #22,%d5
    2480:	0af1           	.short 0x0af1
    2482:	1ad0           	moveb %a0@,%a5@+
    2484:	2ab3 3a92      	movel %a3@(ffffffffffffff92,%d3:l:2),%a5@
    2488:	fd2e           	.short 0xfd2e
    248a:	ed0f           	lslb #6,%d7
    248c:	dd6c cd4d      	addw %d6,%a4@(-12979)
    2490:	bdaa ad8b      	eorl %d6,%a2@(-21109)
    2494:	9de8 8dc9      	subal %a0@(-29239),%fp
    2498:	7c26           	moveq #38,%d6
    249a:	6c07           	bges 24a3 <_code+0x3df>
    249c:	5c64           	addqw #6,%a4@-
    249e:	4c45           	.short 0x4c45
    24a0:	3ca2           	movew %a2@-,%fp@
    24a2:	2c83           	movel %d3,%fp@
    24a4:	1ce0           	moveb %a0@-,%fp@+
    24a6:	0cc1           	.short 0x0cc1
    24a8:	ef1f           	rolb #7,%d7
    24aa:	ff3e           	.short 0xff3e
    24ac:	cf5d           	andw %d7,%a5@+
    24ae:	df7c           	.short 0xdf7c
    24b0:	af9b           	.short 0xaf9b
    24b2:	bfba           	.short 0xbfba
    24b4:	8fd9           	divsw %a1@+,%d7
    24b6:	9ff8 6e17      	subal 6e17 <_bss_end+0xc5f>,%sp
    24ba:	7e36           	moveq #54,%d7
    24bc:	4e55 5e74      	linkw %a5,#24180
    24c0:	2e93           	movel %a3@,%sp@
    24c2:	3eb2 0ed1      	movew %a2@(ffffffffffffffd1,%d0:l:8),%sp@
    24c6:	
000024c8 <mhstart>:
    24c8:	7000           	moveq #0,%d0
    24ca:	323c 01ff      	movew #511,%d1
    24ce:	41f9 0000 27b0 	lea 27b0 <testData>,%a0
    24d4:	43f9 0000 25b0 	lea 25b0 <tableCRC>,%a1
    24da:	7600           	moveq #0,%d3
    24dc:	1600           	moveb %d0,%d3
    24de:	e15b           	rolw #8,%d3
    24e0:	4200           	clrb %d0
    24e2:	e158           	rolw #8,%d0
    24e4:	1818           	moveb %a0@+,%d4
    24e6:	b900           	eorb %d4,%d0
    24e8:	e348           	lslw #1,%d0
    24ea:	3031 0000      	movew %a1@(0,%d0:w),%d0
    24ee:	b740           	eorw %d3,%d0
    24f0:	51c9 ffe8      	dbf %d1,24da <mhstart+0x12>
    24f4:	4e75           	rts

000024f6 <__kinit>:

void *__dso_handle;

__attribute__((weak)) void __kinit() {
  // zero .bss
  for (uint32_t *dst = &_bss_start; dst < &_bss_end; *dst++ = 0);
    24f6:	41f9 0000 29b0 	lea 29b0 <_bss_start>,%a0
    24fc:	b1fc 0000 61b8 	cmpal #25016,%a0
    2502:	641c           	bccs 2520 <__kinit+0x2a>
    2504:	203c 0000 61b8 	movel #25016,%d0
    250a:	0480 0000 29b1 	subil #10673,%d0
    2510:	72fc           	moveq #-4,%d1
    2512:	c081           	andl %d1,%d0
    2514:	0680 0000 29b4 	addil #10676,%d0
    251a:	4298           	clrl %a0@+
    251c:	b088           	cmpl %a0,%d0
    251e:	66fa           	bnes 251a <__kinit+0x24>
}
    2520:	4e75           	rts

00002522 <__cxa_finalize>:
/*
 * We probably don't need the full dso_handle capability as we're always
 * statically linked, but I'd rather do a proper impl now than have it 
 * break later because of a half-baked one :D
 */
void __cxa_finalize(void *dso_handle) {
    2522:	48e7 3020      	moveml %d2-%d3/%a2,%sp@-
    2526:	262f 0010      	movel %sp@(16),%d3
    for (int i = cxa_atexit_count - 1; i >= 0; i--) {
    252a:	7200           	moveq #0,%d1
    252c:	3239 0000 29b4 	movew 29b4 <cxa_atexit_count>,%d1
    2532:	2401           	movel %d1,%d2
    2534:	5382           	subql #1,%d2
    2536:	4a81           	tstl %d1
    2538:	6738           	beqs 2572 <__cxa_finalize+0x50>
    253a:	2001           	movel %d1,%d0
    253c:	e788           	lsll #3,%d0
    253e:	2440           	moveal %d0,%a2
    2540:	95c1           	subal %d1,%a2
    2542:	d5ca           	addal %a2,%a2
    2544:	d5fc 0000 29a8 	addal #10664,%a2
        cxa_atexit_entry *entry = &cxa_atexits[i];

        if ((dso_handle == NULL || dso_handle == entry->dso_handle) && !entry->done) {
    254a:	4a83           	tstl %d3
    254c:	662a           	bnes 2578 <__cxa_finalize+0x56>
    254e:	4a2a 000c      	tstb %a2@(12)
    2552:	6610           	bnes 2564 <__cxa_finalize+0x42>
            entry->func(entry->ptr);
    2554:	2f2a 0004      	movel %a2@(4),%sp@-
    2558:	2052           	moveal %a2@,%a0
    255a:	4e90           	jsr %a0@
            entry->done = true;
    255c:	157c 0001 000c 	moveb #1,%a2@(12)
    2562:	588f           	addql #4,%sp
    for (int i = cxa_atexit_count - 1; i >= 0; i--) {
    2564:	45ea fff2      	lea %a2@(-14),%a2
    2568:	51ca ffe0      	dbf %d2,254a <__cxa_finalize+0x28>
    256c:	4242           	clrw %d2
    256e:	5382           	subql #1,%d2
    2570:	64d8           	bccs 254a <__cxa_finalize+0x28>
        }
    }
}
    2572:	4cdf 040c      	moveml %sp@+,%d2-%d3/%a2
    2576:	4e75           	rts
        if ((dso_handle == NULL || dso_handle == entry->dso_handle) && !entry->done) {
    2578:	b6aa 0008      	cmpl %a2@(8),%d3
    257c:	67d0           	beqs 254e <__cxa_finalize+0x2c>
    for (int i = cxa_atexit_count - 1; i >= 0; i--) {
    257e:	45ea fff2      	lea %a2@(-14),%a2
    2582:	51ca fff4      	dbf %d2,2578 <__cxa_finalize+0x56>
    2586:	4242           	clrw %d2
    2588:	5382           	subql #1,%d2
    258a:	64ec           	bccs 2578 <__cxa_finalize+0x56>
}
    258c:	4cdf 040c      	moveml %sp@+,%d2-%d3/%a2
    2590:	4e75           	rts
